Archive member included to satisfy reference by file (symbol)

c:/program files/microchip/xc32/v4.60/bin/bin/../../lib/gcc/pic32c/8.3.1/../../../../pic32c/lib/thumb/v8-m.base/nofp\libpic32c.a(data_init.o)
                              C:\Users\Jami\AppData\Local\Temp\cckOq98n.o (__pic32c_data_initialization)
c:/program files/microchip/xc32/v4.60/bin/bin/../../lib/gcc/pic32c/8.3.1/../../../../pic32c/lib/thumb/v8-m.base/nofp\libc-size-musl.a(memcmp.o)
                              build/default/debug/main.o (memcmp)
c:/program files/microchip/xc32/v4.60/bin/bin/../../lib/gcc/pic32c/8.3.1/../../../../pic32c/lib/thumb/v8-m.base/nofp\libc-size-musl.a(memset.o)
                              build/default/debug/usart.o (memset)
c:/program files/microchip/xc32/v4.60/bin/bin/../../lib/gcc/pic32c/8.3.1/../../../../pic32c/lib/thumb/v8-m.base/nofp\libg-musl.a(__libc_start_main.o)
                              C:\Users\Jami\AppData\Local\Temp\cckOq98n.o (__libc_init_array)
c:/program files/microchip/xc32/v4.60/bin/bin/../../lib/gcc/pic32c/8.3.1/../../../../pic32c/lib/thumb/v8-m.base/nofp\libg-musl.a(libc.o)
                              c:/program files/microchip/xc32/v4.60/bin/bin/../../lib/gcc/pic32c/8.3.1/../../../../pic32c/lib/thumb/v8-m.base/nofp\libg-musl.a(__libc_start_main.o) (__progname_full)
c:/program files/microchip/xc32/v4.60/bin/bin/../../lib/gcc/pic32c/8.3.1/../../../../pic32c/lib/thumb/v8-m.base/nofp\libg-musl.a(__environ.o)
                              c:/program files/microchip/xc32/v4.60/bin/bin/../../lib/gcc/pic32c/8.3.1/../../../../pic32c/lib/thumb/v8-m.base/nofp\libg-musl.a(__libc_start_main.o) (__environ)
c:/program files/microchip/xc32/v4.60/bin/bin/../../lib/gcc/pic32c/8.3.1/../../../../pic32c/lib/thumb/v8-m.base/nofp\libpic32c.a(pic32_data_init_clear.o)
                              (__dinit_clear_needed)
c:/program files/microchip/xc32/v4.60/bin/bin/../../lib/gcc/pic32c/8.3.1/../../../../pic32c/lib/thumb/v8-m.base/nofp\libpic32c.a(pic32_data_init_copy.o)
                              (__dinit_copy_needed)

Microchip PIC32 Memory-Usage Report

ROM Program-Memory Usage
section                    address  length [bytes]      (dec)  Description
-------                 ----------  -------------------------  -----------
.vectors                         0          0x15c         348   
.text                        0x15c           0x20          32  App's exec code 
.text                        0x17c          0xa4c        2636  App's exec code 
.text                        0xbc8          0x848        2120  App's exec code 
.text                       0x1410          0x78c        1932  App's exec code 
.rodata                     0x1b9c          0x53c        1340  Read-only const 
.text                       0x20d8          0x2f8         760  App's exec code 
.text                       0x23d0          0x238         568  App's exec code 
.dinit                      0x2608           0x80         128   
.text.Reset_Handler         0x2688           0x7e         126   
.text                       0x2706           0x60          96  App's exec code 
.text.Dummy_Handler         0x2766            0x2           2   
.text.__libc_start_init     0x2768           0x5c          92   
.text                       0x27c4           0x40          64  App's exec code 
.text.__pic32c_data_ini     0x2804           0x34          52   
.text.__dinit_copy          0x2838           0x1e          30   
.text.memcmp                0x2856           0x1c          28   
.text.__dummy_init_tls      0x2872            0x2           2   
.rodata                     0x2874           0x14          20  Read-only const 
.text.memset                0x2888           0x14          20   
.text.__dinit_clear         0x289c           0x12          18   
.text                       0x28ae            0xa          10  App's exec code 
.text                       0x28b8            0xa          10  App's exec code 
.text.__dummy_decompres     0x28c2            0x4           4   
.text.__dummy               0x28c6            0x2           2   
      Total ROM used  :      0x28c8       10440  4.0% of 0x40000
        --------------------------------------------------------------------------
         Total Program Memory used  :      0x28c8       10440  4.0% of 0x40000
        --------------------------------------------------------------------------


RAM Data-Memory Usage
section                    address  length [bytes]      (dec)  Description
-------                 ----------  -------------------------  -----------
.bss                    0x20000000          0x178         376  Uninitialized data 
.bss                    0x20000178           0xa8         168  Uninitialized data 
.bss                    0x20000220           0x50          80  Uninitialized data 
.bss                    0x20000270           0x1c          28  Uninitialized data 
.bss                    0x2000028c           0x18          24  Uninitialized data 
.bss                    0x200002a4            0x4           4  Uninitialized data 
.bss                    0x200002a8            0x4           4  Uninitialized data 
.data                   0x200002ac            0x4           4  Initialized data 
.eh_frame               0x200002b0            0x4           4   
         Total RAM used  :       0x2b4         692  2.1% of 0x8000
        --------------------------------------------------------------------------
            Total Data Memory used  :       0x2b4         692  2.1% of 0x8000
        --------------------------------------------------------------------------


Dynamic Data-Memory Reservation
section                    address  length [bytes]      (dec)  Description
-------                 ----------  -------------------------  -----------
heap                    0x200002b8           0x10          16  Reserved for heap 
stack                   0x200002e0         0x7d10       32016  Reserved for stack 

        --------------------------------------------------------------------------

Microchip PIC32 Memory-Usage Report By Module

        text        data         bss         dec         hex    basename                   filename
--------------------------------------------------------------------------------
        3272           0         376        3648         e40    main.o                 build/default/debug/main.o
        2636           0           0        2636         a4c    platform.o             build/default/debug/platform.o
        2120           0         168        2288         8f0    usart.o                build/default/debug/usart.o
         760           0           0         760         2f8    locomotion.o           build/default/debug/locomotion.o
         568           0          24         592         250    irq_handlers.o         build/default/debug/irq_handlers.o
         476           0           0         476         1dc    cckOq98n.o             C:\Users\Jami\AppData\Local\Temp\cckOq98n.o
         128           0           0         128          80    data_init              data_init
          72           4          28         104          68    crtbegin.o             c:/program files/microchip/xc32/v4.60/bin/bin/../../lib/gcc/pic32c/8.3.1/thumb/v8-m.base/nofp/crtbegin.o
          96           0           0          96          60    check_sensors.o        build/default/debug/check_sensors.o
          94           0           0          94          5e    __libc_start_main.o    libg-musl.a
          78           0           4          82          52    data_init.o            libpic32c.a
           0           0          80          80          50    libc.o                 libg-musl.a
          30           0           0          30          1e    pic32_data_init_copy.o libpic32c.a
          28           0           0          28          1c    memcmp.o               libc-size-musl.a
          20           0           0          20          14    memset.o               libc-size-musl.a
          18           0           0          18          12    pic32_data_init_clear.olibpic32c.a
          16           0           0          16          10    crtn.o                 c:/program files/microchip/xc32/v4.60/bin/bin/../../lib/gcc/pic32c/8.3.1/thumb/v8-m.base/nofp/crtn.o
          10           0           0          10           a    wall_following.o       build/default/debug/wall_following.o
          10           0           0          10           a    line_following.o       build/default/debug/line_following.o
           8           0           0           8           8    crti.o                 c:/program files/microchip/xc32/v4.60/bin/bin/../../lib/gcc/pic32c/8.3.1/thumb/v8-m.base/nofp/crti.o
           0           4           0           4           4    crtend.o               c:/program files/microchip/xc32/v4.60/bin/bin/../../lib/gcc/pic32c/8.3.1/thumb/v8-m.base/nofp/crtend.o
           0           0           4           4           4    __environ.o            libg-musl.a
--------------------------------------------------------------------------------
       10440           8         684       11132        2b7c    dist/default/debug/Code.X.debug.elf


Discarded input sections

 .xc_stack_usage.hdr
                0x0000000000000000        0xe c:/program files/microchip/xc32/v4.60/bin/bin/../../lib/gcc/pic32c/8.3.1/thumb/v8-m.base/nofp/crti.o
 .xc_stack_usage
                0x0000000000000000       0x26 c:/program files/microchip/xc32/v4.60/bin/bin/../../lib/gcc/pic32c/8.3.1/thumb/v8-m.base/nofp/crti.o
 .xc_stack_usage
                0x0000000000000000       0x3c c:/program files/microchip/xc32/v4.60/bin/bin/../../lib/gcc/pic32c/8.3.1/thumb/v8-m.base/nofp/crtbegin.o
 .xc_stack_usage.hdr
                0x0000000000000000        0xe c:/program files/microchip/xc32/v4.60/bin/bin/../../lib/gcc/pic32c/8.3.1/thumb/v8-m.base/nofp/crtbegin.o
 .xc_stack_usage
                0x0000000000000000       0x68 c:/program files/microchip/xc32/v4.60/bin/bin/../../lib/gcc/pic32c/8.3.1/../../../../pic32c/lib/thumb/v8-m.base/nofp\libpic32c.a(data_init.o)
 .xc_stack_usage.hdr
                0x0000000000000000        0xe c:/program files/microchip/xc32/v4.60/bin/bin/../../lib/gcc/pic32c/8.3.1/../../../../pic32c/lib/thumb/v8-m.base/nofp\libpic32c.a(data_init.o)
 .xc_stack_usage
                0x0000000000000000       0x14 c:/program files/microchip/xc32/v4.60/bin/bin/../../lib/gcc/pic32c/8.3.1/../../../../pic32c/lib/thumb/v8-m.base/nofp\libc-size-musl.a(memcmp.o)
 .xc_stack_usage.hdr
                0x0000000000000000        0xe c:/program files/microchip/xc32/v4.60/bin/bin/../../lib/gcc/pic32c/8.3.1/../../../../pic32c/lib/thumb/v8-m.base/nofp\libc-size-musl.a(memcmp.o)
 .xc_stack_usage
                0x0000000000000000       0x14 c:/program files/microchip/xc32/v4.60/bin/bin/../../lib/gcc/pic32c/8.3.1/../../../../pic32c/lib/thumb/v8-m.base/nofp\libc-size-musl.a(memset.o)
 .xc_stack_usage.hdr
                0x0000000000000000        0xe c:/program files/microchip/xc32/v4.60/bin/bin/../../lib/gcc/pic32c/8.3.1/../../../../pic32c/lib/thumb/v8-m.base/nofp\libc-size-musl.a(memset.o)
 .xc_stack_usage
                0x0000000000000000       0x34 c:/program files/microchip/xc32/v4.60/bin/bin/../../lib/gcc/pic32c/8.3.1/../../../../pic32c/lib/thumb/v8-m.base/nofp\libg-musl.a(__libc_start_main.o)
 .xc_stack_usage.hdr
                0x0000000000000000        0xe c:/program files/microchip/xc32/v4.60/bin/bin/../../lib/gcc/pic32c/8.3.1/../../../../pic32c/lib/thumb/v8-m.base/nofp\libg-musl.a(__libc_start_main.o)
 .xc_stack_usage.hdr
                0x0000000000000000        0xe c:/program files/microchip/xc32/v4.60/bin/bin/../../lib/gcc/pic32c/8.3.1/../../../../pic32c/lib/thumb/v8-m.base/nofp\libg-musl.a(libc.o)
 .xc_stack_usage.hdr
                0x0000000000000000        0xe c:/program files/microchip/xc32/v4.60/bin/bin/../../lib/gcc/pic32c/8.3.1/../../../../pic32c/lib/thumb/v8-m.base/nofp\libg-musl.a(__environ.o)
 .xc_stack_usage.hdr
                0x0000000000000000        0xe c:/program files/microchip/xc32/v4.60/bin/bin/../../lib/gcc/pic32c/8.3.1/thumb/v8-m.base/nofp/crtend.o
 .xc_stack_usage.hdr
                0x0000000000000000        0xe c:/program files/microchip/xc32/v4.60/bin/bin/../../lib/gcc/pic32c/8.3.1/thumb/v8-m.base/nofp/crtn.o
 .xc_stack_usage
                0x0000000000000000       0x1b c:/program files/microchip/xc32/v4.60/bin/bin/../../lib/gcc/pic32c/8.3.1/../../../../pic32c/lib/thumb/v8-m.base/nofp\libpic32c.a(pic32_data_init_clear.o)
 .xc_stack_usage.hdr
                0x0000000000000000        0xe c:/program files/microchip/xc32/v4.60/bin/bin/../../lib/gcc/pic32c/8.3.1/../../../../pic32c/lib/thumb/v8-m.base/nofp\libpic32c.a(pic32_data_init_clear.o)
 .xc_stack_usage
                0x0000000000000000       0x1a c:/program files/microchip/xc32/v4.60/bin/bin/../../lib/gcc/pic32c/8.3.1/../../../../pic32c/lib/thumb/v8-m.base/nofp\libpic32c.a(pic32_data_init_copy.o)
 .xc_stack_usage.hdr
                0x0000000000000000        0xe c:/program files/microchip/xc32/v4.60/bin/bin/../../lib/gcc/pic32c/8.3.1/../../../../pic32c/lib/thumb/v8-m.base/nofp\libpic32c.a(pic32_data_init_copy.o)

Memory Configuration

Name             Origin             Length             Attributes
rom              0x0000000000000000 0x0000000000040000 xrl
rom_nsc          0x0000000000040000 0x0000000000000000 xrl
ram              0x0000000020000000 0x0000000000008000 xw !r
config_00804000  0x0000000000804000 0x0000000000000004
config_00804004  0x0000000000804004 0x0000000000000004
config_00804008  0x0000000000804008 0x0000000000000004
config_0080400C  0x000000000080400c 0x0000000000000004
config_00804010  0x0000000000804010 0x0000000000000004
config_00804014  0x0000000000804014 0x0000000000000004
config_00804018  0x0000000000804018 0x0000000000000004
config_0080401C  0x000000000080401c 0x0000000000000004
config_00804020  0x0000000000804020 0x0000000000000004
*default*        0x0000000000000000 0xffffffffffffffff

Linker script and memory map

LOAD c:/program files/microchip/xc32/v4.60/bin/bin/../../lib/gcc/pic32c/8.3.1/thumb/v8-m.base/nofp/crti.o
LOAD c:/program files/microchip/xc32/v4.60/bin/bin/../../lib/gcc/pic32c/8.3.1/thumb/v8-m.base/nofp/crtbegin.o
LOAD build/default/debug/main.o
LOAD build/default/debug/irq_handlers.o
LOAD build/default/debug/platform.o
LOAD build/default/debug/usart.o
LOAD build/default/debug/locomotion.o
LOAD build/default/debug/wireless.o
LOAD build/default/debug/check_sensors.o
LOAD build/default/debug/wall_following.o
LOAD build/default/debug/line_following.o
                0x0000000000000001                __MPLAB_BUILD = 0x1
                0x0000000000000001                __ICD2RAM = 0x1
                0x0000000000000001                __MPLAB_DEBUG = 0x1
                0x0000000000000001                __DEBUG = 0x1
LOAD C:\Users\Jami\AppData\Local\Temp\cckOq98n.o
START GROUP
LOAD c:/program files/microchip/xc32/v4.60/bin/bin/../../lib/gcc/pic32c/8.3.1/../../../../pic32c/lib/thumb/v8-m.base/nofp\libpic32c.a
LOAD c:/program files/microchip/xc32/v4.60/bin/bin/../../lib/gcc/pic32c/8.3.1/../../../../pic32c/lib/thumb/v8-m.base/nofp\libc-size-musl.a
LOAD c:/program files/microchip/xc32/v4.60/bin/bin/../../lib/gcc/pic32c/8.3.1/../../../../pic32c/lib/thumb/v8-m.base/nofp\liblmalloc-musl.a
LOAD c:/program files/microchip/xc32/v4.60/bin/bin/../../lib/gcc/pic32c/8.3.1/../../../../pic32c/lib/thumb/v8-m.base/nofp\libm-fast-emfloat.a
LOAD c:/program files/microchip/xc32/v4.60/bin/bin/../../lib/gcc/pic32c/8.3.1/../../../../pic32c/lib/thumb/v8-m.base/nofp\libm-musl.a
LOAD c:/program files/microchip/xc32/v4.60/bin/bin/../../lib/gcc/pic32c/8.3.1/../../../../pic32c/lib/thumb/v8-m.base/nofp\libg-musl.a
LOAD c:/program files/microchip/xc32/v4.60/bin/bin/../../lib/gcc/pic32c/8.3.1/../../../../pic32c/lib/thumb/v8-m.base/nofp\libc-musl.a
LOAD c:/program files/microchip/xc32/v4.60/bin/bin/../../lib/gcc/pic32c/8.3.1/../../../../pic32c/lib/thumb/v8-m.base/nofp\libm-fast-emfloat.a
LOAD c:/program files/microchip/xc32/v4.60/bin/bin/../../lib/gcc/pic32c/8.3.1/../../../../pic32c/lib/thumb/v8-m.base/nofp\libm-musl.a
LOAD c:/program files/microchip/xc32/v4.60/bin/bin/../../lib/gcc/pic32c/8.3.1/thumb/v8-m.base/nofp\libgcc.a
END GROUP
LOAD c:/program files/microchip/xc32/v4.60/bin/bin/../../lib/gcc/pic32c/8.3.1/thumb/v8-m.base/nofp/crtend.o
LOAD c:/program files/microchip/xc32/v4.60/bin/bin/../../lib/gcc/pic32c/8.3.1/thumb/v8-m.base/nofp/crtn.o
                0x0000000000040000                __rom_end = (ORIGIN (rom) + LENGTH (rom))
                0x0000000000040000                __rom_nsc_end = (ORIGIN (rom_nsc) + LENGTH (rom_nsc))
                0x0000000020008000                __ram_end = (ORIGIN (ram) + LENGTH (ram))

.config_00804000
 *(.config_00804000)

.config_00804004
 *(.config_00804004)

.config_00804008
 *(.config_00804008)

.config_0080400C
 *(.config_0080400C)

.config_00804010
 *(.config_00804010)

.config_00804014
 *(.config_00804014)

.config_00804018
 *(.config_00804018)

.config_0080401C
 *(.config_0080401C)

.config_00804020
 *(.config_00804020)

.vectors        0x0000000000000000      0x15c
                0x0000000000000000                . = ALIGN (0x4)
                0x0000000000000000                _sfixed = .
 *(.vectors .vectors.* .vectors_default .vectors_default.*)
 .vectors.default
                0x0000000000000000      0x15c C:\Users\Jami\AppData\Local\Temp\cckOq98n.o
                0x0000000000000000                exception_table
 *(.isr_vector)
 *(.reset*)
 *(.after_vectors)

.text           0x000000000000015c       0x20
                0x000000000000015c                . = ALIGN (0x4)
 *(.glue_7t)
 .glue_7t       0x000000000000015c        0x0 linker stubs
 *(.glue_7)
 .glue_7        0x000000000000015c        0x0 linker stubs
 *veneer.o(.text.*)
 *nonsecure_entry.o(.text.*)
 *(.gnu.linkonce.r.*)
 *(.ARM.extab* .gnu.linkonce.armextab.*)
                0x000000000000015c                . = ALIGN (0x4)
 *(.init)
 .init          0x000000000000015c        0x4 c:/program files/microchip/xc32/v4.60/bin/bin/../../lib/gcc/pic32c/8.3.1/thumb/v8-m.base/nofp/crti.o
                0x000000000000015c                _init
 .init          0x0000000000000160        0x8 c:/program files/microchip/xc32/v4.60/bin/bin/../../lib/gcc/pic32c/8.3.1/thumb/v8-m.base/nofp/crtn.o
                0x0000000000000168                . = ALIGN (0x4)
                0x0000000000000168                __preinit_array_start = .
 *(.preinit_array)
                0x0000000000000168                __preinit_array_end = .
                0x0000000000000168                . = ALIGN (0x4)
                0x0000000000000168                __init_array_start = .
 *(SORT_BY_NAME(.init_array.*))
 *(.init_array)
 .init_array    0x0000000000000168        0x4 c:/program files/microchip/xc32/v4.60/bin/bin/../../lib/gcc/pic32c/8.3.1/thumb/v8-m.base/nofp/crtbegin.o
                0x000000000000016c                __init_array_end = .
                0x000000000000016c                . = ALIGN (0x4)
 *crtbegin.o(.ctors)
 *(EXCLUDE_FILE(*crtend.o) .ctors)
 *(SORT_BY_NAME(.ctors.*))
 *crtend.o(.ctors)
                0x000000000000016c                . = ALIGN (0x4)
 *(.fini)
 .fini          0x000000000000016c        0x4 c:/program files/microchip/xc32/v4.60/bin/bin/../../lib/gcc/pic32c/8.3.1/thumb/v8-m.base/nofp/crti.o
                0x000000000000016c                _fini
 .fini          0x0000000000000170        0x8 c:/program files/microchip/xc32/v4.60/bin/bin/../../lib/gcc/pic32c/8.3.1/thumb/v8-m.base/nofp/crtn.o
                0x0000000000000178                . = ALIGN (0x4)
                0x0000000000000178                __fini_array_start = .
 *(.fini_array)
 .fini_array    0x0000000000000178        0x4 c:/program files/microchip/xc32/v4.60/bin/bin/../../lib/gcc/pic32c/8.3.1/thumb/v8-m.base/nofp/crtbegin.o
 *(SORT_BY_NAME(.fini_array.*))
                0x000000000000017c                __fini_array_end = .
 *crtbegin.o(.dtors)
 *(EXCLUDE_FILE(*crtend.o) .dtors)
 *(SORT_BY_NAME(.dtors.*))
 *crtend.o(.dtors)
                0x000000000000017c                . = ALIGN (0x4)
                0x000000000000017c                _efixed = .
                [!provide]                        PROVIDE (__exidx_start = .)

.ARM.exidx
 *(.ARM.exidx* .gnu.linkonce.armexidx.*)
                [!provide]                        PROVIDE (__exidx_end = .)
                0x000000000000017c                . = ALIGN (0x4)
                0x000000000000017c                _etext = .
                0x000000000000017c                . = ALIGN (0x4)

.gnu.sgstubs    0x0000000000040000        0x0
                0x0000000000040000                _ssgstubs = .

.bss            0x0000000020000000        0x0
                0x0000000020000000                . = ALIGN (0x4)
                0x0000000020000000                __bss_start__ = .
                0x0000000020000000                _sbss = .
                0x0000000020000000                _szero = .
 *(COMMON)
                0x0000000020000000                . = ALIGN (0x4)
                0x0000000020000000                __bss_end__ = .
                0x0000000020000000                _ebss = .
                0x0000000020000000                _ezero = .
                0x0000000020000000                . = ALIGN (0x4)
                0x0000000020000000                _end = .
                0x0000000020007fff                _ram_end_ = ((ORIGIN (ram) + LENGTH (ram)) - 0x1)
OUTPUT(dist/default/debug/Code.X.debug.elf elf32-littlearm)
LOAD data_init
LOAD stack

.ARM.attributes
                0x0000000000000000       0x30
 .ARM.attributes
                0x0000000000000000       0x22 c:/program files/microchip/xc32/v4.60/bin/bin/../../lib/gcc/pic32c/8.3.1/thumb/v8-m.base/nofp/crti.o
 .ARM.attributes
                0x0000000000000022       0x30 c:/program files/microchip/xc32/v4.60/bin/bin/../../lib/gcc/pic32c/8.3.1/thumb/v8-m.base/nofp/crtbegin.o
 .ARM.attributes
                0x0000000000000052       0x30 build/default/debug/main.o
 .ARM.attributes
                0x0000000000000082       0x30 build/default/debug/irq_handlers.o
 .ARM.attributes
                0x00000000000000b2       0x30 build/default/debug/platform.o
 .ARM.attributes
                0x00000000000000e2       0x30 build/default/debug/usart.o
 .ARM.attributes
                0x0000000000000112       0x30 build/default/debug/locomotion.o
 .ARM.attributes
                0x0000000000000142       0x32 build/default/debug/wireless.o
 .ARM.attributes
                0x0000000000000174       0x30 build/default/debug/check_sensors.o
 .ARM.attributes
                0x00000000000001a4       0x30 build/default/debug/wall_following.o
 .ARM.attributes
                0x00000000000001d4       0x30 build/default/debug/line_following.o
 .ARM.attributes
                0x0000000000000204       0x30 C:\Users\Jami\AppData\Local\Temp\cckOq98n.o
 .ARM.attributes
                0x0000000000000234       0x30 c:/program files/microchip/xc32/v4.60/bin/bin/../../lib/gcc/pic32c/8.3.1/../../../../pic32c/lib/thumb/v8-m.base/nofp\libpic32c.a(data_init.o)
 .ARM.attributes
                0x0000000000000264       0x32 c:/program files/microchip/xc32/v4.60/bin/bin/../../lib/gcc/pic32c/8.3.1/../../../../pic32c/lib/thumb/v8-m.base/nofp\libc-size-musl.a(memcmp.o)
 .ARM.attributes
                0x0000000000000296       0x32 c:/program files/microchip/xc32/v4.60/bin/bin/../../lib/gcc/pic32c/8.3.1/../../../../pic32c/lib/thumb/v8-m.base/nofp\libc-size-musl.a(memset.o)
 .ARM.attributes
                0x00000000000002c8       0x32 c:/program files/microchip/xc32/v4.60/bin/bin/../../lib/gcc/pic32c/8.3.1/../../../../pic32c/lib/thumb/v8-m.base/nofp\libg-musl.a(__libc_start_main.o)
 .ARM.attributes
                0x00000000000002fa       0x32 c:/program files/microchip/xc32/v4.60/bin/bin/../../lib/gcc/pic32c/8.3.1/../../../../pic32c/lib/thumb/v8-m.base/nofp\libg-musl.a(libc.o)
 .ARM.attributes
                0x000000000000032c       0x32 c:/program files/microchip/xc32/v4.60/bin/bin/../../lib/gcc/pic32c/8.3.1/../../../../pic32c/lib/thumb/v8-m.base/nofp\libg-musl.a(__environ.o)
 .ARM.attributes
                0x000000000000035e       0x30 c:/program files/microchip/xc32/v4.60/bin/bin/../../lib/gcc/pic32c/8.3.1/thumb/v8-m.base/nofp/crtend.o
 .ARM.attributes
                0x000000000000038e       0x22 c:/program files/microchip/xc32/v4.60/bin/bin/../../lib/gcc/pic32c/8.3.1/thumb/v8-m.base/nofp/crtn.o
 .ARM.attributes
                0x00000000000003b0       0x30 c:/program files/microchip/xc32/v4.60/bin/bin/../../lib/gcc/pic32c/8.3.1/../../../../pic32c/lib/thumb/v8-m.base/nofp\libpic32c.a(pic32_data_init_clear.o)
 .ARM.attributes
                0x00000000000003e0       0x30 c:/program files/microchip/xc32/v4.60/bin/bin/../../lib/gcc/pic32c/8.3.1/../../../../pic32c/lib/thumb/v8-m.base/nofp\libpic32c.a(pic32_data_init_copy.o)

.comment        0x0000000000000000       0x2b
 .comment       0x0000000000000000       0x2b c:/program files/microchip/xc32/v4.60/bin/bin/../../lib/gcc/pic32c/8.3.1/thumb/v8-m.base/nofp/crtbegin.o
                                         0x2c (size before relaxing)
 .comment       0x000000000000002b       0x2c build/default/debug/main.o
 .comment       0x000000000000002b       0x2c build/default/debug/irq_handlers.o
 .comment       0x000000000000002b       0x2c build/default/debug/platform.o
 .comment       0x000000000000002b       0x2c build/default/debug/usart.o
 .comment       0x000000000000002b       0x2c build/default/debug/locomotion.o
 .comment       0x000000000000002b       0x2c build/default/debug/wireless.o
 .comment       0x000000000000002b       0x2c build/default/debug/check_sensors.o
 .comment       0x000000000000002b       0x2c build/default/debug/wall_following.o
 .comment       0x000000000000002b       0x2c build/default/debug/line_following.o
 .comment       0x000000000000002b       0x2c C:\Users\Jami\AppData\Local\Temp\cckOq98n.o
 .comment       0x000000000000002b       0x2c c:/program files/microchip/xc32/v4.60/bin/bin/../../lib/gcc/pic32c/8.3.1/../../../../pic32c/lib/thumb/v8-m.base/nofp\libpic32c.a(data_init.o)
 .comment       0x000000000000002b       0x2c c:/program files/microchip/xc32/v4.60/bin/bin/../../lib/gcc/pic32c/8.3.1/../../../../pic32c/lib/thumb/v8-m.base/nofp\libc-size-musl.a(memcmp.o)
 .comment       0x000000000000002b       0x2c c:/program files/microchip/xc32/v4.60/bin/bin/../../lib/gcc/pic32c/8.3.1/../../../../pic32c/lib/thumb/v8-m.base/nofp\libc-size-musl.a(memset.o)
 .comment       0x000000000000002b       0x2c c:/program files/microchip/xc32/v4.60/bin/bin/../../lib/gcc/pic32c/8.3.1/../../../../pic32c/lib/thumb/v8-m.base/nofp\libg-musl.a(__libc_start_main.o)
 .comment       0x000000000000002b       0x2c c:/program files/microchip/xc32/v4.60/bin/bin/../../lib/gcc/pic32c/8.3.1/../../../../pic32c/lib/thumb/v8-m.base/nofp\libg-musl.a(libc.o)
 .comment       0x000000000000002b       0x2c c:/program files/microchip/xc32/v4.60/bin/bin/../../lib/gcc/pic32c/8.3.1/../../../../pic32c/lib/thumb/v8-m.base/nofp\libg-musl.a(__environ.o)
 .comment       0x000000000000002b       0x2c c:/program files/microchip/xc32/v4.60/bin/bin/../../lib/gcc/pic32c/8.3.1/thumb/v8-m.base/nofp/crtend.o
 .comment       0x000000000000002b       0x2c c:/program files/microchip/xc32/v4.60/bin/bin/../../lib/gcc/pic32c/8.3.1/../../../../pic32c/lib/thumb/v8-m.base/nofp\libpic32c.a(pic32_data_init_clear.o)
 .comment       0x000000000000002b       0x2c c:/program files/microchip/xc32/v4.60/bin/bin/../../lib/gcc/pic32c/8.3.1/../../../../pic32c/lib/thumb/v8-m.base/nofp\libpic32c.a(pic32_data_init_copy.o)

.debug_info     0x0000000000000000     0x4f8d
 .debug_info    0x0000000000000000      0x8c9 build/default/debug/main.o
 .debug_info    0x00000000000008c9      0x59e build/default/debug/irq_handlers.o
 .debug_info    0x0000000000000e67     0x17cf build/default/debug/platform.o
 .debug_info    0x0000000000002636     0x11c7 build/default/debug/usart.o
 .debug_info    0x00000000000037fd      0x37e build/default/debug/locomotion.o
 .debug_info    0x0000000000003b7b      0x32a build/default/debug/check_sensors.o
 .debug_info    0x0000000000003ea5       0x91 build/default/debug/wall_following.o
 .debug_info    0x0000000000003f36       0x91 build/default/debug/line_following.o
 .debug_info    0x0000000000003fc7      0x742 C:\Users\Jami\AppData\Local\Temp\cckOq98n.o
 .debug_info    0x0000000000004709       0x68 c:/program files/microchip/xc32/v4.60/bin/bin/../../lib/gcc/pic32c/8.3.1/../../../../pic32c/lib/thumb/v8-m.base/nofp\libpic32c.a(data_init.o)
 .debug_info    0x0000000000004771       0xda c:/program files/microchip/xc32/v4.60/bin/bin/../../lib/gcc/pic32c/8.3.1/../../../../pic32c/lib/thumb/v8-m.base/nofp\libc-size-musl.a(memcmp.o)
 .debug_info    0x000000000000484b       0xbb c:/program files/microchip/xc32/v4.60/bin/bin/../../lib/gcc/pic32c/8.3.1/../../../../pic32c/lib/thumb/v8-m.base/nofp\libc-size-musl.a(memset.o)
 .debug_info    0x0000000000004906      0x2fb c:/program files/microchip/xc32/v4.60/bin/bin/../../lib/gcc/pic32c/8.3.1/../../../../pic32c/lib/thumb/v8-m.base/nofp\libg-musl.a(__libc_start_main.o)
 .debug_info    0x0000000000004c01      0x276 c:/program files/microchip/xc32/v4.60/bin/bin/../../lib/gcc/pic32c/8.3.1/../../../../pic32c/lib/thumb/v8-m.base/nofp\libg-musl.a(libc.o)
 .debug_info    0x0000000000004e77       0x97 c:/program files/microchip/xc32/v4.60/bin/bin/../../lib/gcc/pic32c/8.3.1/../../../../pic32c/lib/thumb/v8-m.base/nofp\libg-musl.a(__environ.o)
 .debug_info    0x0000000000004f0e       0x3f c:/program files/microchip/xc32/v4.60/bin/bin/../../lib/gcc/pic32c/8.3.1/../../../../pic32c/lib/thumb/v8-m.base/nofp\libpic32c.a(pic32_data_init_clear.o)
 .debug_info    0x0000000000004f4d       0x40 c:/program files/microchip/xc32/v4.60/bin/bin/../../lib/gcc/pic32c/8.3.1/../../../../pic32c/lib/thumb/v8-m.base/nofp\libpic32c.a(pic32_data_init_copy.o)

.debug_abbrev   0x0000000000000000     0x1024
 .debug_abbrev  0x0000000000000000      0x222 build/default/debug/main.o
 .debug_abbrev  0x0000000000000222      0x1f2 build/default/debug/irq_handlers.o
 .debug_abbrev  0x0000000000000414      0x22d build/default/debug/platform.o
 .debug_abbrev  0x0000000000000641      0x262 build/default/debug/usart.o
 .debug_abbrev  0x00000000000008a3       0xcb build/default/debug/locomotion.o
 .debug_abbrev  0x000000000000096e       0xb3 build/default/debug/check_sensors.o
 .debug_abbrev  0x0000000000000a21       0x44 build/default/debug/wall_following.o
 .debug_abbrev  0x0000000000000a65       0x44 build/default/debug/line_following.o
 .debug_abbrev  0x0000000000000aa9      0x129 C:\Users\Jami\AppData\Local\Temp\cckOq98n.o
 .debug_abbrev  0x0000000000000bd2       0x44 c:/program files/microchip/xc32/v4.60/bin/bin/../../lib/gcc/pic32c/8.3.1/../../../../pic32c/lib/thumb/v8-m.base/nofp\libpic32c.a(data_init.o)
 .debug_abbrev  0x0000000000000c16       0xa7 c:/program files/microchip/xc32/v4.60/bin/bin/../../lib/gcc/pic32c/8.3.1/../../../../pic32c/lib/thumb/v8-m.base/nofp\libc-size-musl.a(memcmp.o)
 .debug_abbrev  0x0000000000000cbd       0xa2 c:/program files/microchip/xc32/v4.60/bin/bin/../../lib/gcc/pic32c/8.3.1/../../../../pic32c/lib/thumb/v8-m.base/nofp\libc-size-musl.a(memset.o)
 .debug_abbrev  0x0000000000000d5f      0x133 c:/program files/microchip/xc32/v4.60/bin/bin/../../lib/gcc/pic32c/8.3.1/../../../../pic32c/lib/thumb/v8-m.base/nofp\libg-musl.a(__libc_start_main.o)
 .debug_abbrev  0x0000000000000e92       0xd4 c:/program files/microchip/xc32/v4.60/bin/bin/../../lib/gcc/pic32c/8.3.1/../../../../pic32c/lib/thumb/v8-m.base/nofp\libg-musl.a(libc.o)
 .debug_abbrev  0x0000000000000f66       0x62 c:/program files/microchip/xc32/v4.60/bin/bin/../../lib/gcc/pic32c/8.3.1/../../../../pic32c/lib/thumb/v8-m.base/nofp\libg-musl.a(__environ.o)
 .debug_abbrev  0x0000000000000fc8       0x2e c:/program files/microchip/xc32/v4.60/bin/bin/../../lib/gcc/pic32c/8.3.1/../../../../pic32c/lib/thumb/v8-m.base/nofp\libpic32c.a(pic32_data_init_clear.o)
 .debug_abbrev  0x0000000000000ff6       0x2e c:/program files/microchip/xc32/v4.60/bin/bin/../../lib/gcc/pic32c/8.3.1/../../../../pic32c/lib/thumb/v8-m.base/nofp\libpic32c.a(pic32_data_init_copy.o)

.debug_loc      0x0000000000000000      0xc99
 .debug_loc     0x0000000000000000       0xa8 build/default/debug/main.o
 .debug_loc     0x00000000000000a8      0x184 build/default/debug/irq_handlers.o
 .debug_loc     0x000000000000022c      0x264 build/default/debug/platform.o
 .debug_loc     0x0000000000000490      0x214 build/default/debug/usart.o
 .debug_loc     0x00000000000006a4      0x1e4 build/default/debug/locomotion.o
 .debug_loc     0x0000000000000888      0x108 build/default/debug/check_sensors.o
 .debug_loc     0x0000000000000990       0x2c build/default/debug/wall_following.o
 .debug_loc     0x00000000000009bc       0x2c build/default/debug/line_following.o
 .debug_loc     0x00000000000009e8       0x14 c:/program files/microchip/xc32/v4.60/bin/bin/../../lib/gcc/pic32c/8.3.1/../../../../pic32c/lib/thumb/v8-m.base/nofp\libpic32c.a(data_init.o)
 .debug_loc     0x00000000000009fc      0x15e c:/program files/microchip/xc32/v4.60/bin/bin/../../lib/gcc/pic32c/8.3.1/../../../../pic32c/lib/thumb/v8-m.base/nofp\libc-size-musl.a(memcmp.o)
 .debug_loc     0x0000000000000b5a       0xcd c:/program files/microchip/xc32/v4.60/bin/bin/../../lib/gcc/pic32c/8.3.1/../../../../pic32c/lib/thumb/v8-m.base/nofp\libc-size-musl.a(memset.o)
 .debug_loc     0x0000000000000c27       0x5e c:/program files/microchip/xc32/v4.60/bin/bin/../../lib/gcc/pic32c/8.3.1/../../../../pic32c/lib/thumb/v8-m.base/nofp\libg-musl.a(__libc_start_main.o)
 .debug_loc     0x0000000000000c85       0x14 c:/program files/microchip/xc32/v4.60/bin/bin/../../lib/gcc/pic32c/8.3.1/../../../../pic32c/lib/thumb/v8-m.base/nofp\libpic32c.a(pic32_data_init_copy.o)

.debug_aranges  0x0000000000000000      0x230
 .debug_aranges
                0x0000000000000000       0x20 build/default/debug/main.o
 .debug_aranges
                0x0000000000000020       0x20 build/default/debug/irq_handlers.o
 .debug_aranges
                0x0000000000000040       0x20 build/default/debug/platform.o
 .debug_aranges
                0x0000000000000060       0x20 build/default/debug/usart.o
 .debug_aranges
                0x0000000000000080       0x20 build/default/debug/locomotion.o
 .debug_aranges
                0x00000000000000a0       0x20 build/default/debug/check_sensors.o
 .debug_aranges
                0x00000000000000c0       0x20 build/default/debug/wall_following.o
 .debug_aranges
                0x00000000000000e0       0x20 build/default/debug/line_following.o
 .debug_aranges
                0x0000000000000100       0x28 C:\Users\Jami\AppData\Local\Temp\cckOq98n.o
 .debug_aranges
                0x0000000000000128       0x30 c:/program files/microchip/xc32/v4.60/bin/bin/../../lib/gcc/pic32c/8.3.1/../../../../pic32c/lib/thumb/v8-m.base/nofp\libpic32c.a(data_init.o)
 .debug_aranges
                0x0000000000000158       0x20 c:/program files/microchip/xc32/v4.60/bin/bin/../../lib/gcc/pic32c/8.3.1/../../../../pic32c/lib/thumb/v8-m.base/nofp\libc-size-musl.a(memcmp.o)
 .debug_aranges
                0x0000000000000178       0x20 c:/program files/microchip/xc32/v4.60/bin/bin/../../lib/gcc/pic32c/8.3.1/../../../../pic32c/lib/thumb/v8-m.base/nofp\libc-size-musl.a(memset.o)
 .debug_aranges
                0x0000000000000198       0x28 c:/program files/microchip/xc32/v4.60/bin/bin/../../lib/gcc/pic32c/8.3.1/../../../../pic32c/lib/thumb/v8-m.base/nofp\libg-musl.a(__libc_start_main.o)
 .debug_aranges
                0x00000000000001c0       0x18 c:/program files/microchip/xc32/v4.60/bin/bin/../../lib/gcc/pic32c/8.3.1/../../../../pic32c/lib/thumb/v8-m.base/nofp\libg-musl.a(libc.o)
 .debug_aranges
                0x00000000000001d8       0x18 c:/program files/microchip/xc32/v4.60/bin/bin/../../lib/gcc/pic32c/8.3.1/../../../../pic32c/lib/thumb/v8-m.base/nofp\libg-musl.a(__environ.o)
 .debug_aranges
                0x00000000000001f0       0x20 c:/program files/microchip/xc32/v4.60/bin/bin/../../lib/gcc/pic32c/8.3.1/../../../../pic32c/lib/thumb/v8-m.base/nofp\libpic32c.a(pic32_data_init_clear.o)
 .debug_aranges
                0x0000000000000210       0x20 c:/program files/microchip/xc32/v4.60/bin/bin/../../lib/gcc/pic32c/8.3.1/../../../../pic32c/lib/thumb/v8-m.base/nofp\libpic32c.a(pic32_data_init_copy.o)

.debug_line     0x0000000000000000     0x1da5
 .debug_line    0x0000000000000000      0x40e build/default/debug/main.o
 .debug_line    0x000000000000040e      0x242 build/default/debug/irq_handlers.o
 .debug_line    0x0000000000000650      0x664 build/default/debug/platform.o
 .debug_line    0x0000000000000cb4      0x4c2 build/default/debug/usart.o
 .debug_line    0x0000000000001176      0x183 build/default/debug/locomotion.o
 .debug_line    0x00000000000012f9        0x0 build/default/debug/wireless.o
 .debug_line    0x00000000000012f9      0x137 build/default/debug/check_sensors.o
 .debug_line    0x0000000000001430       0x45 build/default/debug/wall_following.o
 .debug_line    0x0000000000001475       0x45 build/default/debug/line_following.o
 .debug_line    0x00000000000014ba      0x220 C:\Users\Jami\AppData\Local\Temp\cckOq98n.o
 .debug_line    0x00000000000016da       0xa5 c:/program files/microchip/xc32/v4.60/bin/bin/../../lib/gcc/pic32c/8.3.1/../../../../pic32c/lib/thumb/v8-m.base/nofp\libpic32c.a(data_init.o)
 .debug_line    0x000000000000177f       0xdd c:/program files/microchip/xc32/v4.60/bin/bin/../../lib/gcc/pic32c/8.3.1/../../../../pic32c/lib/thumb/v8-m.base/nofp\libc-size-musl.a(memcmp.o)
 .debug_line    0x000000000000185c       0xe3 c:/program files/microchip/xc32/v4.60/bin/bin/../../lib/gcc/pic32c/8.3.1/../../../../pic32c/lib/thumb/v8-m.base/nofp\libc-size-musl.a(memset.o)
 .debug_line    0x000000000000193f      0x1bf c:/program files/microchip/xc32/v4.60/bin/bin/../../lib/gcc/pic32c/8.3.1/../../../../pic32c/lib/thumb/v8-m.base/nofp\libg-musl.a(__libc_start_main.o)
 .debug_line    0x0000000000001afe       0xb5 c:/program files/microchip/xc32/v4.60/bin/bin/../../lib/gcc/pic32c/8.3.1/../../../../pic32c/lib/thumb/v8-m.base/nofp\libg-musl.a(libc.o)
 .debug_line    0x0000000000001bb3       0xfb c:/program files/microchip/xc32/v4.60/bin/bin/../../lib/gcc/pic32c/8.3.1/../../../../pic32c/lib/thumb/v8-m.base/nofp\libg-musl.a(__environ.o)
 .debug_line    0x0000000000001cae       0x6f c:/program files/microchip/xc32/v4.60/bin/bin/../../lib/gcc/pic32c/8.3.1/../../../../pic32c/lib/thumb/v8-m.base/nofp\libpic32c.a(pic32_data_init_clear.o)
 .debug_line    0x0000000000001d1d       0x88 c:/program files/microchip/xc32/v4.60/bin/bin/../../lib/gcc/pic32c/8.3.1/../../../../pic32c/lib/thumb/v8-m.base/nofp\libpic32c.a(pic32_data_init_copy.o)

.debug_str      0x0000000000000000     0x5154
 .debug_str     0x0000000000000000      0x687 build/default/debug/main.o
 .debug_str     0x0000000000000687      0x55e build/default/debug/irq_handlers.o
 .debug_str     0x0000000000000be5     0x113b build/default/debug/platform.o
 .debug_str     0x0000000000001d20      0x837 build/default/debug/usart.o
 .debug_str     0x0000000000002557      0x3e7 build/default/debug/locomotion.o
 .debug_str     0x000000000000293e      0x1db build/default/debug/wireless.o
 .debug_str     0x0000000000002b19      0x3d1 build/default/debug/check_sensors.o
 .debug_str     0x0000000000002eea      0x28a build/default/debug/wall_following.o
 .debug_str     0x0000000000003174      0x28a build/default/debug/line_following.o
 .debug_str     0x00000000000033fe      0x9f6 C:\Users\Jami\AppData\Local\Temp\cckOq98n.o
 .debug_str     0x0000000000003df4      0x209 c:/program files/microchip/xc32/v4.60/bin/bin/../../lib/gcc/pic32c/8.3.1/../../../../pic32c/lib/thumb/v8-m.base/nofp\libpic32c.a(data_init.o)
 .debug_str     0x0000000000003ffd      0x21c c:/program files/microchip/xc32/v4.60/bin/bin/../../lib/gcc/pic32c/8.3.1/../../../../pic32c/lib/thumb/v8-m.base/nofp\libc-size-musl.a(memcmp.o)
 .debug_str     0x0000000000004219      0x21e c:/program files/microchip/xc32/v4.60/bin/bin/../../lib/gcc/pic32c/8.3.1/../../../../pic32c/lib/thumb/v8-m.base/nofp\libc-size-musl.a(memset.o)
 .debug_str     0x0000000000004437      0x3d7 c:/program files/microchip/xc32/v4.60/bin/bin/../../lib/gcc/pic32c/8.3.1/../../../../pic32c/lib/thumb/v8-m.base/nofp\libg-musl.a(__libc_start_main.o)
 .debug_str     0x000000000000480e      0x342 c:/program files/microchip/xc32/v4.60/bin/bin/../../lib/gcc/pic32c/8.3.1/../../../../pic32c/lib/thumb/v8-m.base/nofp\libg-musl.a(libc.o)
 .debug_str     0x0000000000004b50      0x242 c:/program files/microchip/xc32/v4.60/bin/bin/../../lib/gcc/pic32c/8.3.1/../../../../pic32c/lib/thumb/v8-m.base/nofp\libg-musl.a(__environ.o)
 .debug_str     0x0000000000004d92      0x1e2 c:/program files/microchip/xc32/v4.60/bin/bin/../../lib/gcc/pic32c/8.3.1/../../../../pic32c/lib/thumb/v8-m.base/nofp\libpic32c.a(pic32_data_init_clear.o)
 .debug_str     0x0000000000004f74      0x1e0 c:/program files/microchip/xc32/v4.60/bin/bin/../../lib/gcc/pic32c/8.3.1/../../../../pic32c/lib/thumb/v8-m.base/nofp\libpic32c.a(pic32_data_init_copy.o)

.debug_frame    0x0000000000000000      0x7d4
 .debug_frame   0x0000000000000000       0x70 build/default/debug/main.o
 .debug_frame   0x0000000000000070       0xfc build/default/debug/irq_handlers.o
 .debug_frame   0x000000000000016c      0x17c build/default/debug/platform.o
 .debug_frame   0x00000000000002e8      0x154 build/default/debug/usart.o
 .debug_frame   0x000000000000043c      0x144 build/default/debug/locomotion.o
 .debug_frame   0x0000000000000580       0xb8 build/default/debug/check_sensors.o
 .debug_frame   0x0000000000000638       0x2c build/default/debug/wall_following.o
 .debug_frame   0x0000000000000664       0x2c build/default/debug/line_following.o
 .debug_frame   0x0000000000000690       0x30 C:\Users\Jami\AppData\Local\Temp\cckOq98n.o
 .debug_frame   0x00000000000006c0       0x48 c:/program files/microchip/xc32/v4.60/bin/bin/../../lib/gcc/pic32c/8.3.1/../../../../pic32c/lib/thumb/v8-m.base/nofp\libpic32c.a(data_init.o)
 .debug_frame   0x0000000000000708       0x2c c:/program files/microchip/xc32/v4.60/bin/bin/../../lib/gcc/pic32c/8.3.1/../../../../pic32c/lib/thumb/v8-m.base/nofp\libc-size-musl.a(memcmp.o)
 .debug_frame   0x0000000000000734       0x20 c:/program files/microchip/xc32/v4.60/bin/bin/../../lib/gcc/pic32c/8.3.1/../../../../pic32c/lib/thumb/v8-m.base/nofp\libc-size-musl.a(memset.o)
 .debug_frame   0x0000000000000754       0x38 c:/program files/microchip/xc32/v4.60/bin/bin/../../lib/gcc/pic32c/8.3.1/../../../../pic32c/lib/thumb/v8-m.base/nofp\libg-musl.a(__libc_start_main.o)
 .debug_frame   0x000000000000078c       0x20 c:/program files/microchip/xc32/v4.60/bin/bin/../../lib/gcc/pic32c/8.3.1/../../../../pic32c/lib/thumb/v8-m.base/nofp\libpic32c.a(pic32_data_init_clear.o)
 .debug_frame   0x00000000000007ac       0x28 c:/program files/microchip/xc32/v4.60/bin/bin/../../lib/gcc/pic32c/8.3.1/../../../../pic32c/lib/thumb/v8-m.base/nofp\libpic32c.a(pic32_data_init_copy.o)

.debug_ranges   0x0000000000000000       0xb0
 .debug_ranges  0x0000000000000000       0x18 C:\Users\Jami\AppData\Local\Temp\cckOq98n.o
 .debug_ranges  0x0000000000000018       0x20 c:/program files/microchip/xc32/v4.60/bin/bin/../../lib/gcc/pic32c/8.3.1/../../../../pic32c/lib/thumb/v8-m.base/nofp\libpic32c.a(data_init.o)
 .debug_ranges  0x0000000000000038       0x10 c:/program files/microchip/xc32/v4.60/bin/bin/../../lib/gcc/pic32c/8.3.1/../../../../pic32c/lib/thumb/v8-m.base/nofp\libc-size-musl.a(memcmp.o)
 .debug_ranges  0x0000000000000048       0x10 c:/program files/microchip/xc32/v4.60/bin/bin/../../lib/gcc/pic32c/8.3.1/../../../../pic32c/lib/thumb/v8-m.base/nofp\libc-size-musl.a(memset.o)
 .debug_ranges  0x0000000000000058       0x38 c:/program files/microchip/xc32/v4.60/bin/bin/../../lib/gcc/pic32c/8.3.1/../../../../pic32c/lib/thumb/v8-m.base/nofp\libg-musl.a(__libc_start_main.o)
 .debug_ranges  0x0000000000000090       0x10 c:/program files/microchip/xc32/v4.60/bin/bin/../../lib/gcc/pic32c/8.3.1/../../../../pic32c/lib/thumb/v8-m.base/nofp\libpic32c.a(pic32_data_init_clear.o)
 .debug_ranges  0x00000000000000a0       0x10 c:/program files/microchip/xc32/v4.60/bin/bin/../../lib/gcc/pic32c/8.3.1/../../../../pic32c/lib/thumb/v8-m.base/nofp\libpic32c.a(pic32_data_init_copy.o)

.note.GNU-stack
                0x0000000000000000        0x0
 .note.GNU-stack
                0x0000000000000000        0x0 c:/program files/microchip/xc32/v4.60/bin/bin/../../lib/gcc/pic32c/8.3.1/../../../../pic32c/lib/thumb/v8-m.base/nofp\libc-size-musl.a(memcmp.o)
 .note.GNU-stack
                0x0000000000000000        0x0 c:/program files/microchip/xc32/v4.60/bin/bin/../../lib/gcc/pic32c/8.3.1/../../../../pic32c/lib/thumb/v8-m.base/nofp\libc-size-musl.a(memset.o)
 .note.GNU-stack
                0x0000000000000000        0x0 c:/program files/microchip/xc32/v4.60/bin/bin/../../lib/gcc/pic32c/8.3.1/../../../../pic32c/lib/thumb/v8-m.base/nofp\libg-musl.a(__libc_start_main.o)
 .note.GNU-stack
                0x0000000000000000        0x0 c:/program files/microchip/xc32/v4.60/bin/bin/../../lib/gcc/pic32c/8.3.1/../../../../pic32c/lib/thumb/v8-m.base/nofp\libg-musl.a(libc.o)
 .note.GNU-stack
                0x0000000000000000        0x0 c:/program files/microchip/xc32/v4.60/bin/bin/../../lib/gcc/pic32c/8.3.1/../../../../pic32c/lib/thumb/v8-m.base/nofp\libg-musl.a(__environ.o)

.stack          0x00000000200002e0      0x100
 .stack         0x00000000200002e0      0x100 stack

.bss%1          0x0000000020000000      0x178
 .bss           0x0000000020000000      0x178 build/default/debug/main.o
                0x0000000020000000                idx_message
                0x0000000020000004                step_per
                0x0000000020000008                speed
                0x000000002000000c                setting
                0x0000000020000010                setting_ptr
                0x000000002000001c                ps

.bss%2          0x0000000020000178       0xa8
 .bss           0x0000000020000178       0xa8 build/default/debug/usart.o

.bss%3          0x0000000020000220       0x50
 .bss           0x0000000020000220       0x50 c:/program files/microchip/xc32/v4.60/bin/bin/../../lib/gcc/pic32c/8.3.1/../../../../pic32c/lib/thumb/v8-m.base/nofp\libg-musl.a(libc.o)
                0x0000000020000220                __progname_full
                0x0000000020000220                program_invocation_name
                0x0000000020000224                program_invocation_short_name
                0x0000000020000224                __progname
                0x0000000020000228                __sysinfo
                0x000000002000022c                __hwcap
                0x0000000020000230                __libc

.bss%4          0x0000000020000270       0x1c
 .bss           0x0000000020000270       0x1c c:/program files/microchip/xc32/v4.60/bin/bin/../../lib/gcc/pic32c/8.3.1/thumb/v8-m.base/nofp/crtbegin.o

.bss%5          0x000000002000028c       0x18
 .bss           0x000000002000028c       0x18 build/default/debug/irq_handlers.o
                0x000000002000028c                trip
                0x0000000020000294                stepper

.bss%6          0x00000000200002a4        0x4
 .bss           0x00000000200002a4        0x4 c:/program files/microchip/xc32/v4.60/bin/bin/../../lib/gcc/pic32c/8.3.1/../../../../pic32c/lib/thumb/v8-m.base/nofp\libpic32c.a(data_init.o)

.bss%7          0x00000000200002a8        0x4
 .bss           0x00000000200002a8        0x4 c:/program files/microchip/xc32/v4.60/bin/bin/../../lib/gcc/pic32c/8.3.1/../../../../pic32c/lib/thumb/v8-m.base/nofp\libg-musl.a(__environ.o)
                0x00000000200002a8                __environ
                0x00000000200002a8                environ
                0x00000000200002a8                ___environ
                0x00000000200002a8                _environ

.bss%z1         0x0000000000000000        0x0
 .bss           0x0000000000000000        0x0 c:/program files/microchip/xc32/v4.60/bin/bin/../../lib/gcc/pic32c/8.3.1/../../../../pic32c/lib/thumb/v8-m.base/nofp\libpic32c.a(pic32_data_init_copy.o)

.bss%z2         0x0000000000000000        0x0
 .bss           0x0000000000000000        0x0 c:/program files/microchip/xc32/v4.60/bin/bin/../../lib/gcc/pic32c/8.3.1/../../../../pic32c/lib/thumb/v8-m.base/nofp\libpic32c.a(pic32_data_init_clear.o)

.bss%z3         0x0000000000000000        0x0
 .bss           0x0000000000000000        0x0 c:/program files/microchip/xc32/v4.60/bin/bin/../../lib/gcc/pic32c/8.3.1/thumb/v8-m.base/nofp/crtn.o

.bss%z4         0x0000000000000000        0x0
 .bss           0x0000000000000000        0x0 c:/program files/microchip/xc32/v4.60/bin/bin/../../lib/gcc/pic32c/8.3.1/thumb/v8-m.base/nofp/crtend.o

.bss%z5         0x0000000000000000        0x0
 .bss           0x0000000000000000        0x0 c:/program files/microchip/xc32/v4.60/bin/bin/../../lib/gcc/pic32c/8.3.1/../../../../pic32c/lib/thumb/v8-m.base/nofp\libg-musl.a(__libc_start_main.o)

.bss%z6         0x0000000000000000        0x0
 .bss           0x0000000000000000        0x0 c:/program files/microchip/xc32/v4.60/bin/bin/../../lib/gcc/pic32c/8.3.1/../../../../pic32c/lib/thumb/v8-m.base/nofp\libc-size-musl.a(memset.o)

.bss%z7         0x0000000000000000        0x0
 .bss           0x0000000000000000        0x0 c:/program files/microchip/xc32/v4.60/bin/bin/../../lib/gcc/pic32c/8.3.1/../../../../pic32c/lib/thumb/v8-m.base/nofp\libc-size-musl.a(memcmp.o)

.bss%z8         0x0000000000000000        0x0
 .bss           0x0000000000000000        0x0 C:\Users\Jami\AppData\Local\Temp\cckOq98n.o

.bss%z9         0x0000000000000000        0x0
 .bss           0x0000000000000000        0x0 build/default/debug/line_following.o

.bss%z10        0x0000000000000000        0x0
 .bss           0x0000000000000000        0x0 build/default/debug/wall_following.o

.bss%z11        0x0000000000000000        0x0
 .bss           0x0000000000000000        0x0 build/default/debug/check_sensors.o

.bss%z12        0x0000000000000000        0x0
 .bss           0x0000000000000000        0x0 build/default/debug/wireless.o

.bss%z13        0x0000000000000000        0x0
 .bss           0x0000000000000000        0x0 build/default/debug/locomotion.o

.bss%z14        0x0000000000000000        0x0
 .bss           0x0000000000000000        0x0 build/default/debug/platform.o

.bss%z15        0x0000000000000000        0x0
 .bss           0x0000000000000000        0x0 c:/program files/microchip/xc32/v4.60/bin/bin/../../lib/gcc/pic32c/8.3.1/thumb/v8-m.base/nofp/crti.o

.data%8         0x00000000200002ac        0x4
 .data          0x00000000200002ac        0x4 c:/program files/microchip/xc32/v4.60/bin/bin/../../lib/gcc/pic32c/8.3.1/thumb/v8-m.base/nofp/crtbegin.o
                0x00000000200002ac                __dso_handle

.eh_frame%9     0x00000000200002b0        0x4
 .eh_frame      0x00000000200002b0        0x4 c:/program files/microchip/xc32/v4.60/bin/bin/../../lib/gcc/pic32c/8.3.1/thumb/v8-m.base/nofp/crtend.o

.data%z16       0x0000000000000000        0x0
 .data          0x0000000000000000        0x0 c:/program files/microchip/xc32/v4.60/bin/bin/../../lib/gcc/pic32c/8.3.1/../../../../pic32c/lib/thumb/v8-m.base/nofp\libpic32c.a(pic32_data_init_copy.o)

.data%z17       0x0000000000000000        0x0
 .data          0x0000000000000000        0x0 c:/program files/microchip/xc32/v4.60/bin/bin/../../lib/gcc/pic32c/8.3.1/../../../../pic32c/lib/thumb/v8-m.base/nofp\libpic32c.a(pic32_data_init_clear.o)

.data%z18       0x0000000000000000        0x0
 .data          0x0000000000000000        0x0 c:/program files/microchip/xc32/v4.60/bin/bin/../../lib/gcc/pic32c/8.3.1/thumb/v8-m.base/nofp/crtn.o

.data%z19       0x0000000000000000        0x0
 .data          0x0000000000000000        0x0 c:/program files/microchip/xc32/v4.60/bin/bin/../../lib/gcc/pic32c/8.3.1/thumb/v8-m.base/nofp/crtend.o

.data%z20       0x0000000000000000        0x0
 .data          0x0000000000000000        0x0 c:/program files/microchip/xc32/v4.60/bin/bin/../../lib/gcc/pic32c/8.3.1/../../../../pic32c/lib/thumb/v8-m.base/nofp\libg-musl.a(__environ.o)

.data%z21       0x0000000000000000        0x0
 .data          0x0000000000000000        0x0 c:/program files/microchip/xc32/v4.60/bin/bin/../../lib/gcc/pic32c/8.3.1/../../../../pic32c/lib/thumb/v8-m.base/nofp\libg-musl.a(libc.o)

.data%z22       0x0000000000000000        0x0
 .data          0x0000000000000000        0x0 c:/program files/microchip/xc32/v4.60/bin/bin/../../lib/gcc/pic32c/8.3.1/../../../../pic32c/lib/thumb/v8-m.base/nofp\libg-musl.a(__libc_start_main.o)

.data%z23       0x0000000000000000        0x0
 .data          0x0000000000000000        0x0 c:/program files/microchip/xc32/v4.60/bin/bin/../../lib/gcc/pic32c/8.3.1/../../../../pic32c/lib/thumb/v8-m.base/nofp\libc-size-musl.a(memset.o)

.data%z24       0x0000000000000000        0x0
 .data          0x0000000000000000        0x0 c:/program files/microchip/xc32/v4.60/bin/bin/../../lib/gcc/pic32c/8.3.1/../../../../pic32c/lib/thumb/v8-m.base/nofp\libc-size-musl.a(memcmp.o)

.data%z25       0x0000000000000000        0x0
 .data          0x0000000000000000        0x0 c:/program files/microchip/xc32/v4.60/bin/bin/../../lib/gcc/pic32c/8.3.1/../../../../pic32c/lib/thumb/v8-m.base/nofp\libpic32c.a(data_init.o)

.data%z26       0x0000000000000000        0x0
 .data          0x0000000000000000        0x0 C:\Users\Jami\AppData\Local\Temp\cckOq98n.o

.data%z27       0x0000000000000000        0x0
 .data          0x0000000000000000        0x0 build/default/debug/line_following.o

.data%z28       0x0000000000000000        0x0
 .data          0x0000000000000000        0x0 build/default/debug/wall_following.o

.data%z29       0x0000000000000000        0x0
 .data          0x0000000000000000        0x0 build/default/debug/check_sensors.o

.data%z30       0x0000000000000000        0x0
 .data          0x0000000000000000        0x0 build/default/debug/wireless.o

.data%z31       0x0000000000000000        0x0
 .data          0x0000000000000000        0x0 build/default/debug/locomotion.o

.data%z32       0x0000000000000000        0x0
 .data          0x0000000000000000        0x0 build/default/debug/usart.o

.data%z33       0x0000000000000000        0x0
 .data          0x0000000000000000        0x0 build/default/debug/platform.o

.data%z34       0x0000000000000000        0x0
 .data          0x0000000000000000        0x0 build/default/debug/irq_handlers.o

.data%z35       0x0000000000000000        0x0
 .data          0x0000000000000000        0x0 build/default/debug/main.o

.eh_frame%z36   0x0000000000000000        0x0
 .eh_frame      0x0000000000000000        0x0 c:/program files/microchip/xc32/v4.60/bin/bin/../../lib/gcc/pic32c/8.3.1/thumb/v8-m.base/nofp/crtbegin.o

.data%z37       0x0000000000000000        0x0
 .data          0x0000000000000000        0x0 c:/program files/microchip/xc32/v4.60/bin/bin/../../lib/gcc/pic32c/8.3.1/thumb/v8-m.base/nofp/crti.o

.text%10        0x000000000000017c      0xa4c
 .text          0x000000000000017c      0xa4c build/default/debug/platform.o
                0x00000000000002ac                platform_init_early
                0x00000000000002d4                platform_init_late
                0x0000000000000b92                platform_do_sys_reset

.text%11        0x0000000000000bc8      0x848
 .text          0x0000000000000bc8      0x848 build/default/debug/usart.o
                0x0000000000000bc8                platform_usart_cdc_init
                0x0000000000000d60                SERCOM3_0_Handler
                0x0000000000000e66                SERCOM3_2_Handler
                0x0000000000000fea                platform_internal_usart_cdc_systick_handler
                0x0000000000001060                platform_usart_cdc_send_async
                0x0000000000001194                platform_usart_cdc_send_abort
                0x0000000000001246                platform_usart_cdc_tx_busy
                0x0000000000001264                platform_usart_cdc_recv_async
                0x000000000000131c                platform_usart_cdc_recv_abort
                0x0000000000001390                platform_usart_cdc_recv_get
                0x00000000000013f0                platform_usart_cdc_rx_busy

.text%12        0x0000000000001410      0x78c
 .text          0x0000000000001410      0x78c build/default/debug/main.o
                0x0000000000001a38                main

.rodata%13      0x0000000000001b9c      0x53c
 .rodata        0x0000000000001b9c      0x53c build/default/debug/main.o

.text%14        0x00000000000020d8      0x2f8
 .text          0x00000000000020d8      0x2f8 build/default/debug/locomotion.o
                0x00000000000020d8                a_stop
                0x000000000000212a                b_stop
                0x0000000000002188                a_cw
                0x00000000000021da                b_cw
                0x0000000000002238                a_ccw
                0x000000000000228a                b_ccw
                0x00000000000022e8                stop
                0x0000000000002316                turn_right
                0x0000000000002344                turn_left
                0x0000000000002372                go_forward
                0x00000000000023a0                go_backward

.text%15        0x00000000000023d0      0x238
 .text          0x00000000000023d0      0x238 build/default/debug/irq_handlers.o
                0x00000000000023d0                platform_systick_count
                0x00000000000023fe                SysTick_Handler
                0x0000000000002476                EIC_EXTINT_0_Handler
                0x00000000000024b4                EIC_EXTINT_1_Handler
                0x00000000000024f2                EIC_EXTINT_2_Handler
                0x000000000000254a                EIC_EXTINT_6_Handler
                0x00000000000025a2                platform_tick_delta
                0x00000000000025d8                platform_tick_count

.dinit%16       0x0000000000002608       0x80
 .dinit         0x0000000000002608       0x80 data_init

.text.Reset_Handler%17
                0x0000000000002688       0x7e
 .text.Reset_Handler
                0x0000000000002688       0x7e C:\Users\Jami\AppData\Local\Temp\cckOq98n.o
                0x0000000000002688                Reset_Handler

.text%18        0x0000000000002706       0x60
 .text          0x0000000000002706       0x60 build/default/debug/check_sensors.o
                0x0000000000002706                us_left
                0x000000000000272a                us_center
                0x0000000000002736                us_right
                0x0000000000002742                ir_left
                0x000000000000274e                ir_center
                0x000000000000275a                ir_right

.text.__libc_start_init%19
                0x0000000000002768       0x5c
 .text.__libc_start_init
                0x0000000000002768       0x5c c:/program files/microchip/xc32/v4.60/bin/bin/../../lib/gcc/pic32c/8.3.1/../../../../pic32c/lib/thumb/v8-m.base/nofp\libg-musl.a(__libc_start_main.o)
                0x0000000000002768                __libc_init_array

.text%20        0x00000000000027c4       0x40
 .text          0x00000000000027c4       0x40 c:/program files/microchip/xc32/v4.60/bin/bin/../../lib/gcc/pic32c/8.3.1/thumb/v8-m.base/nofp/crtbegin.o

.text.__pic32c_data_initialization%21
                0x0000000000002804       0x34
 .text.__pic32c_data_initialization
                0x0000000000002804       0x34 c:/program files/microchip/xc32/v4.60/bin/bin/../../lib/gcc/pic32c/8.3.1/../../../../pic32c/lib/thumb/v8-m.base/nofp\libpic32c.a(data_init.o)
                0x0000000000002804                __pic32c_data_initialization

.text.__dinit_copy%22
                0x0000000000002838       0x1e
 .text.__dinit_copy
                0x0000000000002838       0x1e c:/program files/microchip/xc32/v4.60/bin/bin/../../lib/gcc/pic32c/8.3.1/../../../../pic32c/lib/thumb/v8-m.base/nofp\libpic32c.a(pic32_data_init_copy.o)
                0x0000000000002838                __dinit_copy_needed
                0x0000000000002838                __dinit_copy

.text.memcmp%23
                0x0000000000002856       0x1c
 .text.memcmp   0x0000000000002856       0x1c c:/program files/microchip/xc32/v4.60/bin/bin/../../lib/gcc/pic32c/8.3.1/../../../../pic32c/lib/thumb/v8-m.base/nofp\libc-size-musl.a(memcmp.o)
                0x0000000000002856                memcmp

.rodata%24      0x0000000000002874       0x14
 .rodata        0x0000000000002874       0x14 c:/program files/microchip/xc32/v4.60/bin/bin/../../lib/gcc/pic32c/8.3.1/../../../../pic32c/lib/thumb/v8-m.base/nofp\libpic32c.a(data_init.o)

.text.memset%25
                0x0000000000002888       0x14
 .text.memset   0x0000000000002888       0x14 c:/program files/microchip/xc32/v4.60/bin/bin/../../lib/gcc/pic32c/8.3.1/../../../../pic32c/lib/thumb/v8-m.base/nofp\libc-size-musl.a(memset.o)
                0x0000000000002888                memset

.text.__dinit_clear%26
                0x000000000000289c       0x12
 .text.__dinit_clear
                0x000000000000289c       0x12 c:/program files/microchip/xc32/v4.60/bin/bin/../../lib/gcc/pic32c/8.3.1/../../../../pic32c/lib/thumb/v8-m.base/nofp\libpic32c.a(pic32_data_init_clear.o)
                0x000000000000289c                __dinit_clear
                0x000000000000289c                __dinit_clear_needed

.text%27        0x00000000000028ae        0xa
 .text          0x00000000000028ae        0xa build/default/debug/wall_following.o
                0x00000000000028ae                wall_following_algorithm

.text%28        0x00000000000028b8        0xa
 .text          0x00000000000028b8        0xa build/default/debug/line_following.o
                0x00000000000028b8                line_following_algorithm

.text.__dummy_decompress%29
                0x00000000000028c2        0x4
 .text.__dummy_decompress
                0x00000000000028c2        0x4 c:/program files/microchip/xc32/v4.60/bin/bin/../../lib/gcc/pic32c/8.3.1/../../../../pic32c/lib/thumb/v8-m.base/nofp\libpic32c.a(data_init.o)
                0x00000000000028c2                __dinit_decompress
                0x00000000000028c2                __dinit_copy_val_data
                0x00000000000028c2                __dinit_copy_emb

.text.Dummy_Handler%30
                0x0000000000002766        0x2
 .text.Dummy_Handler
                0x0000000000002766        0x2 C:\Users\Jami\AppData\Local\Temp\cckOq98n.o
                0x0000000000002766                SVCall_Handler
                0x0000000000002766                SERCOM0_2_Handler
                0x0000000000002766                EVSYS_0_Handler
                0x0000000000002766                TRNG_Handler
                0x0000000000002766                ADC_RESRDY_Handler
                0x0000000000002766                HardFault_Handler
                0x0000000000002766                TC2_Handler
                0x0000000000002766                AC_Handler
                0x0000000000002766                DMAC_OTHER_Handler
                0x0000000000002766                EIC_EXTINT_5_Handler
                0x0000000000002766                SERCOM3_1_Handler
                0x0000000000002766                SERCOM4_OTHER_Handler
                0x0000000000002766                PendSV_Handler
                0x0000000000002766                EVSYS_3_Handler
                0x0000000000002766                NonMaskableInt_Handler
                0x0000000000002766                TCC1_Handler
                0x0000000000002766                EIC_EXTINT_4_Handler
                0x0000000000002766                EIC_EXTINT_7_Handler
                0x0000000000002766                SERCOM0_OTHER_Handler
                0x0000000000002766                TCC0_Handler
                0x0000000000002766                SERCOM0_0_Handler
                0x0000000000002766                RTC_Handler
                0x0000000000002766                SERCOM4_0_Handler
                0x0000000000002766                SERCOM1_OTHER_Handler
                0x0000000000002766                EVSYS_1_Handler
                0x0000000000002766                DMAC_0_Handler
                0x0000000000002766                WDT_Handler
                0x0000000000002766                TRAM_Handler
                0x0000000000002766                EVSYS_NSCHK_Handler
                0x0000000000002766                SERCOM5_0_Handler
                0x0000000000002766                TC1_Handler
                0x0000000000002766                DAC_UNDERRUN_Handler
                0x0000000000002766                DAC_EMPTY_Handler
                0x0000000000002766                PAC_Handler
                0x0000000000002766                USB_Handler
                0x0000000000002766                SERCOM4_1_Handler
                0x0000000000002766                Dummy_Handler
                0x0000000000002766                SERCOM5_1_Handler
                0x0000000000002766                DMAC_2_Handler
                0x0000000000002766                SERCOM0_1_Handler
                0x0000000000002766                SERCOM5_OTHER_Handler
                0x0000000000002766                DMAC_1_Handler
                0x0000000000002766                TCC3_Handler
                0x0000000000002766                TCC2_Handler
                0x0000000000002766                SERCOM1_1_Handler
                0x0000000000002766                EVSYS_7_Handler
                0x0000000000002766                I2S_Handler
                0x0000000000002766                NVMCTRL_Handler
                0x0000000000002766                PORT_Handler
                0x0000000000002766                SYSTEM_Handler
                0x0000000000002766                SERCOM1_0_Handler
                0x0000000000002766                SERCOM2_1_Handler
                0x0000000000002766                SERCOM1_2_Handler
                0x0000000000002766                SERCOM4_2_Handler
                0x0000000000002766                EVSYS_4_Handler
                0x0000000000002766                SERCOM5_2_Handler
                0x0000000000002766                SERCOM2_2_Handler
                0x0000000000002766                EIC_EXTINT_3_Handler
                0x0000000000002766                SERCOM3_OTHER_Handler
                0x0000000000002766                PTC_Handler
                0x0000000000002766                EVSYS_6_Handler
                0x0000000000002766                EVSYS_5_Handler
                0x0000000000002766                EVSYS_2_Handler
                0x0000000000002766                SERCOM2_OTHER_Handler
                0x0000000000002766                FREQM_Handler
                0x0000000000002766                TC0_Handler
                0x0000000000002766                EIC_OTHER_Handler
                0x0000000000002766                ADC_OTHER_Handler
                0x0000000000002766                DMAC_3_Handler
                0x0000000000002766                SERCOM2_0_Handler

.text.__dummy_init_tls%31
                0x0000000000002872        0x2
 .text.__dummy_init_tls
                0x0000000000002872        0x2 c:/program files/microchip/xc32/v4.60/bin/bin/../../lib/gcc/pic32c/8.3.1/../../../../pic32c/lib/thumb/v8-m.base/nofp\libpic32c.a(data_init.o)
                0x0000000000002872                xc32_init_tls

.text.__dummy%32
                0x00000000000028c6        0x2
 .text.__dummy  0x00000000000028c6        0x2 c:/program files/microchip/xc32/v4.60/bin/bin/../../lib/gcc/pic32c/8.3.1/../../../../pic32c/lib/thumb/v8-m.base/nofp\libg-musl.a(__libc_start_main.o)
                0x00000000000028c6                __init_stdio
                0x00000000000028c6                __init_host

.text%z38       0x0000000000000000        0x0
 .text          0x0000000000000000        0x0 c:/program files/microchip/xc32/v4.60/bin/bin/../../lib/gcc/pic32c/8.3.1/../../../../pic32c/lib/thumb/v8-m.base/nofp\libpic32c.a(pic32_data_init_copy.o)

.text%z39       0x0000000000000000        0x0
 .text          0x0000000000000000        0x0 c:/program files/microchip/xc32/v4.60/bin/bin/../../lib/gcc/pic32c/8.3.1/../../../../pic32c/lib/thumb/v8-m.base/nofp\libpic32c.a(pic32_data_init_clear.o)

.text%z40       0x0000000000000000        0x0
 .text          0x0000000000000000        0x0 c:/program files/microchip/xc32/v4.60/bin/bin/../../lib/gcc/pic32c/8.3.1/thumb/v8-m.base/nofp/crtn.o

.text%z41       0x0000000000000000        0x0
 .text          0x0000000000000000        0x0 c:/program files/microchip/xc32/v4.60/bin/bin/../../lib/gcc/pic32c/8.3.1/thumb/v8-m.base/nofp/crtend.o

.text%z42       0x0000000000000000        0x0
 .text          0x0000000000000000        0x0 c:/program files/microchip/xc32/v4.60/bin/bin/../../lib/gcc/pic32c/8.3.1/../../../../pic32c/lib/thumb/v8-m.base/nofp\libg-musl.a(__environ.o)

.text%z43       0x0000000000000000        0x0
 .text          0x0000000000000000        0x0 c:/program files/microchip/xc32/v4.60/bin/bin/../../lib/gcc/pic32c/8.3.1/../../../../pic32c/lib/thumb/v8-m.base/nofp\libg-musl.a(libc.o)

.text%z44       0x0000000000000000        0x0
 .text          0x0000000000000000        0x0 c:/program files/microchip/xc32/v4.60/bin/bin/../../lib/gcc/pic32c/8.3.1/../../../../pic32c/lib/thumb/v8-m.base/nofp\libg-musl.a(__libc_start_main.o)

.text%z45       0x0000000000000000        0x0
 .text          0x0000000000000000        0x0 c:/program files/microchip/xc32/v4.60/bin/bin/../../lib/gcc/pic32c/8.3.1/../../../../pic32c/lib/thumb/v8-m.base/nofp\libc-size-musl.a(memset.o)

.text%z46       0x0000000000000000        0x0
 .text          0x0000000000000000        0x0 c:/program files/microchip/xc32/v4.60/bin/bin/../../lib/gcc/pic32c/8.3.1/../../../../pic32c/lib/thumb/v8-m.base/nofp\libc-size-musl.a(memcmp.o)

.text%z47       0x0000000000000000        0x0
 .text          0x0000000000000000        0x0 c:/program files/microchip/xc32/v4.60/bin/bin/../../lib/gcc/pic32c/8.3.1/../../../../pic32c/lib/thumb/v8-m.base/nofp\libpic32c.a(data_init.o)

.text%z48       0x0000000000000000        0x0
 .text          0x0000000000000000        0x0 C:\Users\Jami\AppData\Local\Temp\cckOq98n.o

.text%z49       0x0000000000000000        0x0
 .text          0x0000000000000000        0x0 build/default/debug/wireless.o

.text%z50       0x0000000000000000        0x0
 .text          0x0000000000000000        0x0 c:/program files/microchip/xc32/v4.60/bin/bin/../../lib/gcc/pic32c/8.3.1/thumb/v8-m.base/nofp/crti.o
